target datalayout = "e-m:e-p270:32:32-p271:32:32-p272:64:64-i64:64-i128:128-f80:128-n8:16:32:64-S128"
target triple = "x86_64-pc-linux-gnu"

%class.Triangle = type <{ ptr, %"class.cv::Point3_", %"class.cv::Point3_", %"class.cv::Point3_", [4 x i8] }>
%"class.cv::Point3_" = type { float, float, float }

@_ZTV8Triangle = hidden unnamed_addr constant { [4 x ptr] } { [4 x ptr] [ptr null, ptr @_ZTI8Triangle, ptr @_ZN8TriangleD1Ev, ptr @_ZN8TriangleD0Ev] }, align 8

; Function Attrs: mustprogress nounwind uwtable
define hidden void @_ZN8TriangleC2ERKN2cv7Point3_IfEES4_S4_(ptr noundef nonnull align 8 dereferenceable(44) %0, ptr noundef nonnull align 4 dereferenceable(12) %1, ptr noundef nonnull align 4 dereferenceable(12) %2, ptr noundef nonnull align 4 dereferenceable(12) %3) unnamed_addr #4 align 2 {
  %5 = alloca ptr, align 8
  %6 = alloca ptr, align 8
  %7 = alloca ptr, align 8
  %8 = alloca ptr, align 8
  store ptr %0, ptr %5, align 8
  store ptr %1, ptr %6, align 8
  store ptr %2, ptr %7, align 8
  store ptr %3, ptr %8, align 8
  %9 = load ptr, ptr %5, align 8
  store ptr getelementptr inbounds inrange(-16, 16) ({ [4 x ptr] }, ptr @_ZTV8Triangle, i32 0, i32 0, i32 2), ptr %9, align 8
  %10 = getelementptr inbounds %class.Triangle, ptr %9, i32 0, i32 1
  %11 = load ptr, ptr %6, align 8
  call void @llvm.memcpy.p0.p0.i64(ptr align 8 %10, ptr align 4 %11, i64 12, i1 false)
  %12 = getelementptr inbounds %class.Triangle, ptr %9, i32 0, i32 2
  %13 = load ptr, ptr %7, align 8
  call void @llvm.memcpy.p0.p0.i64(ptr align 4 %12, ptr align 4 %13, i64 12, i1 false)
  %14 = getelementptr inbounds %class.Triangle, ptr %9, i32 0, i32 3
  %15 = load ptr, ptr %8, align 8
  call void @llvm.memcpy.p0.p0.i64(ptr align 8 %14, ptr align 4 %15, i64 12, i1 false)
  ret void
}