; Function Attrs: mustprogress nofree norecurse nosync nounwind willreturn memory(argmem: readwrite) uwtable
define hidden void @_ZN8TriangleC2ERKN2cv7Point3_IfEES4_S4_(ptr nocapture noundef nonnull writeonly align 8 dereferenceable(44) %0, ptr nocapture noundef nonnull readonly align 4 dereferenceable(12) %1, ptr nocapture noundef nonnull readonly align 4 dereferenceable(12) %2, ptr nocapture noundef nonnull readonly align 4 dereferenceable(12) %3) unnamed_addr #3 align 2 {
  store ptr getelementptr inbounds inrange(-16, 16) (i8, ptr @_ZTV8Triangle, i64 16), ptr %0, align 8
  %5 = getelementptr inbounds i8, ptr %0, i64 8
  tail call void @llvm.memcpy.p0.p0.i64(ptr noundef nonnull align 8 dereferenceable(12) %5, ptr noundef nonnull align 4 dereferenceable(12) %1, i64 12, i1 false)
  %6 = getelementptr inbounds i8, ptr %0, i64 20
  tail call void @llvm.memcpy.p0.p0.i64(ptr noundef nonnull align 4 dereferenceable(12) %6, ptr noundef nonnull align 4 dereferenceable(12) %2, i64 12, i1 false)
  %7 = getelementptr inbounds i8, ptr %0, i64 32
  tail call void @llvm.memcpy.p0.p0.i64(ptr noundef nonnull align 8 dereferenceable(12) %7, ptr noundef nonnull align 4 dereferenceable(12) %3, i64 12, i1 false)
  ret void
}